; ModuleID = '51/713.c'
source_filename = "51/713.c"
target datalayout = "e-m:e-p270:32:32-p271:32:32-p272:64:64-i64:64-f80:128-n8:16:32:64-S128"
target triple = "x86_64-pc-linux-gnu"

@.str = private unnamed_addr constant [3 x i8] c"%d\00", align 1
@.str.1 = private unnamed_addr constant [3 x i8] c"%s\00", align 1
@.str.2 = private unnamed_addr constant [3 x i8] c"NO\00", align 1
@.str.3 = private unnamed_addr constant [4 x i8] c"%d\0A\00", align 1
@.str.4 = private unnamed_addr constant [4 x i8] c"%s\0A\00", align 1

; Function Attrs: noinline nounwind uwtable
define dso_local i32 @main() #0 {
  %1 = alloca i32, align 4
  %2 = alloca i32, align 4
  %3 = alloca i32, align 4
  %4 = alloca i32, align 4
  %5 = alloca i32, align 4
  %6 = alloca i32, align 4
  %7 = alloca i32, align 4
  %8 = alloca i32, align 4
  %9 = alloca i32, align 4
  %10 = alloca i32, align 4
  %11 = alloca i32, align 4
  %12 = alloca [501 x i32], align 16
  %13 = alloca [501 x i8], align 16
  %14 = alloca [251 x [5 x i8]], align 16
  store i32 0, i32* %1, align 4
  store i32 0, i32* %11, align 4
  %15 = bitcast [501 x i32]* %12 to i8*
  call void @llvm.memset.p0i8.i64(i8* align 16 %15, i8 0, i64 2004, i1 false)
  %16 = bitcast [251 x [5 x i8]]* %14 to i8*
  call void @llvm.memset.p0i8.i64(i8* align 16 %16, i8 0, i64 1255, i1 false)
  %17 = call i32 (i8*, ...) @__isoc99_scanf(i8* getelementptr inbounds ([3 x i8], [3 x i8]* @.str, i64 0, i64 0), i32* %3)
  %18 = getelementptr inbounds [501 x i8], [501 x i8]* %13, i64 0, i64 0
  %19 = call i32 (i8*, ...) @__isoc99_scanf(i8* getelementptr inbounds ([3 x i8], [3 x i8]* @.str.1, i64 0, i64 0), i8* %18)
  %20 = getelementptr inbounds [501 x i8], [501 x i8]* %13, i64 0, i64 0
  %21 = call i64 @strlen(i8* %20) #4
  %22 = trunc i64 %21 to i32
  store i32 %22, i32* %2, align 4
  store i32 0, i32* %7, align 4
  br label %23

23:                                               ; preds = %52, %0
  %24 = load i32, i32* %7, align 4
  %25 = load i32, i32* %2, align 4
  %26 = load i32, i32* %3, align 4
  %27 = sub nsw i32 %25, %26
  %28 = add nsw i32 %27, 1
  %29 = icmp slt i32 %24, %28
  br i1 %29, label %30, label %55

30:                                               ; preds = %23
  store i32 0, i32* %6, align 4
  br label %31

31:                                               ; preds = %48, %30
  %32 = load i32, i32* %6, align 4
  %33 = load i32, i32* %3, align 4
  %34 = icmp slt i32 %32, %33
  br i1 %34, label %35, label %51

35:                                               ; preds = %31
  %36 = load i32, i32* %7, align 4
  %37 = load i32, i32* %6, align 4
  %38 = add nsw i32 %36, %37
  %39 = sext i32 %38 to i64
  %40 = getelementptr inbounds [501 x i8], [501 x i8]* %13, i64 0, i64 %39
  %41 = load i8, i8* %40, align 1
  %42 = load i32, i32* %7, align 4
  %43 = sext i32 %42 to i64
  %44 = getelementptr inbounds [251 x [5 x i8]], [251 x [5 x i8]]* %14, i64 0, i64 %43
  %45 = load i32, i32* %6, align 4
  %46 = sext i32 %45 to i64
  %47 = getelementptr inbounds [5 x i8], [5 x i8]* %44, i64 0, i64 %46
  store i8 %41, i8* %47, align 1
  br label %48

48:                                               ; preds = %35
  %49 = load i32, i32* %6, align 4
  %50 = add nsw i32 %49, 1
  store i32 %50, i32* %6, align 4
  br label %31

51:                                               ; preds = %31
  br label %52

52:                                               ; preds = %51
  %53 = load i32, i32* %7, align 4
  %54 = add nsw i32 %53, 1
  store i32 %54, i32* %7, align 4
  br label %23

55:                                               ; preds = %23
  store i32 0, i32* %8, align 4
  br label %56

56:                                               ; preds = %109, %55
  %57 = load i32, i32* %8, align 4
  %58 = load i32, i32* %2, align 4
  %59 = load i32, i32* %3, align 4
  %60 = sub nsw i32 %58, %59
  %61 = add nsw i32 %60, 1
  %62 = icmp slt i32 %57, %61
  br i1 %62, label %63, label %112

63:                                               ; preds = %56
  %64 = load i32, i32* %8, align 4
  store i32 %64, i32* %9, align 4
  br label %65

65:                                               ; preds = %93, %63
  %66 = load i32, i32* %9, align 4
  %67 = load i32, i32* %2, align 4
  %68 = load i32, i32* %3, align 4
  %69 = sub nsw i32 %67, %68
  %70 = add nsw i32 %69, 1
  %71 = icmp slt i32 %66, %70
  br i1 %71, label %72, label %96

72:                                               ; preds = %65
  %73 = load i32, i32* %8, align 4
  %74 = sext i32 %73 to i64
  %75 = getelementptr inbounds [251 x [5 x i8]], [251 x [5 x i8]]* %14, i64 0, i64 %74
  %76 = getelementptr inbounds [5 x i8], [5 x i8]* %75, i64 0, i64 0
  %77 = load i32, i32* %9, align 4
  %78 = sext i32 %77 to i64
  %79 = getelementptr inbounds [251 x [5 x i8]], [251 x [5 x i8]]* %14, i64 0, i64 %78
  %80 = getelementptr inbounds [5 x i8], [5 x i8]* %79, i64 0, i64 0
  %81 = call i32 @strcmp(i8* %76, i8* %80) #4
  %82 = icmp eq i32 %81, 0
  br i1 %82, label %83, label %92

83:                                               ; preds = %72
  %84 = load i32, i32* %8, align 4
  %85 = sext i32 %84 to i64
  %86 = getelementptr inbounds [501 x i32], [501 x i32]* %12, i64 0, i64 %85
  %87 = load i32, i32* %86, align 4
  %88 = add nsw i32 %87, 1
  %89 = load i32, i32* %8, align 4
  %90 = sext i32 %89 to i64
  %91 = getelementptr inbounds [501 x i32], [501 x i32]* %12, i64 0, i64 %90
  store i32 %88, i32* %91, align 4
  br label %92

92:                                               ; preds = %83, %72
  br label %93

93:                                               ; preds = %92
  %94 = load i32, i32* %9, align 4
  %95 = add nsw i32 %94, 1
  store i32 %95, i32* %9, align 4
  br label %65

96:                                               ; preds = %65
  %97 = load i32, i32* %8, align 4
  %98 = sext i32 %97 to i64
  %99 = getelementptr inbounds [501 x i32], [501 x i32]* %12, i64 0, i64 %98
  %100 = load i32, i32* %99, align 4
  %101 = load i32, i32* %11, align 4
  %102 = icmp sgt i32 %100, %101
  br i1 %102, label %103, label %108

103:                                              ; preds = %96
  %104 = load i32, i32* %8, align 4
  %105 = sext i32 %104 to i64
  %106 = getelementptr inbounds [501 x i32], [501 x i32]* %12, i64 0, i64 %105
  %107 = load i32, i32* %106, align 4
  store i32 %107, i32* %11, align 4
  br label %108

108:                                              ; preds = %103, %96
  br label %109

109:                                              ; preds = %108
  %110 = load i32, i32* %8, align 4
  %111 = add nsw i32 %110, 1
  store i32 %111, i32* %8, align 4
  br label %56

112:                                              ; preds = %56
  %113 = load i32, i32* %11, align 4
  %114 = icmp eq i32 %113, 1
  br i1 %114, label %115, label %117

115:                                              ; preds = %112
  %116 = call i32 (i8*, ...) @printf(i8* getelementptr inbounds ([3 x i8], [3 x i8]* @.str.2, i64 0, i64 0))
  br label %145

117:                                              ; preds = %112
  %118 = load i32, i32* %11, align 4
  %119 = call i32 (i8*, ...) @printf(i8* getelementptr inbounds ([4 x i8], [4 x i8]* @.str.3, i64 0, i64 0), i32 %118)
  store i32 0, i32* %10, align 4
  br label %120

120:                                              ; preds = %141, %117
  %121 = load i32, i32* %10, align 4
  %122 = load i32, i32* %2, align 4
  %123 = load i32, i32* %3, align 4
  %124 = sub nsw i32 %122, %123
  %125 = add nsw i32 %124, 1
  %126 = icmp slt i32 %121, %125
  br i1 %126, label %127, label %144

127:                                              ; preds = %120
  %128 = load i32, i32* %10, align 4
  %129 = sext i32 %128 to i64
  %130 = getelementptr inbounds [501 x i32], [501 x i32]* %12, i64 0, i64 %129
  %131 = load i32, i32* %130, align 4
  %132 = load i32, i32* %11, align 4
  %133 = icmp eq i32 %131, %132
  br i1 %133, label %134, label %140

134:                                              ; preds = %127
  %135 = load i32, i32* %10, align 4
  %136 = sext i32 %135 to i64
  %137 = getelementptr inbounds [251 x [5 x i8]], [251 x [5 x i8]]* %14, i64 0, i64 %136
  %138 = getelementptr inbounds [5 x i8], [5 x i8]* %137, i64 0, i64 0
  %139 = call i32 (i8*, ...) @printf(i8* getelementptr inbounds ([4 x i8], [4 x i8]* @.str.4, i64 0, i64 0), i8* %138)
  br label %140

140:                                              ; preds = %134, %127
  br label %141

141:                                              ; preds = %140
  %142 = load i32, i32* %10, align 4
  %143 = add nsw i32 %142, 1
  store i32 %143, i32* %10, align 4
  br label %120

144:                                              ; preds = %120
  br label %145

145:                                              ; preds = %144, %115
  ret i32 0
}

; Function Attrs: argmemonly nounwind willreturn
declare void @llvm.memset.p0i8.i64(i8* nocapture writeonly, i8, i64, i1 immarg) #1

declare dso_local i32 @__isoc99_scanf(i8*, ...) #2

; Function Attrs: nounwind readonly
declare dso_local i64 @strlen(i8*) #3

; Function Attrs: nounwind readonly
declare dso_local i32 @strcmp(i8*, i8*) #3

declare dso_local i32 @printf(i8*, ...) #2


!llvm.module.flags = !{!0}
!llvm.ident = !{!1}

!0 = !{i32 1, !"wchar_size", i32 4}
!1 = !{!"clang version 10.0.0-4ubuntu1 "}
