; ModuleID = 'source-C-CXX/50/713.c'
source_filename = "source-C-CXX/50/713.c"
target datalayout = "e-m:e-p270:32:32-p271:32:32-p272:64:64-i64:64-f80:128-n8:16:32:64-S128"
target triple = "x86_64-pc-linux-gnu"

@.str = private unnamed_addr constant [3 x i8] c"%d\00", align 1
@.str.1 = private unnamed_addr constant [3 x i8] c"%s\00", align 1
@.str.2 = private unnamed_addr constant [3 x i8] c"NO\00", align 1
@.str.3 = private unnamed_addr constant [4 x i8] c"%d\0A\00", align 1

; Function Attrs: nofree nounwind sspstrong uwtable
define dso_local i32 @main() local_unnamed_addr #0 {
  %1 = alloca i32, align 4
  %2 = alloca [501 x i32], align 16
  %3 = alloca [501 x i8], align 16
  %4 = alloca [251 x [5 x i8]], align 16
  %5 = bitcast i32* %1 to i8*
  call void @llvm.lifetime.start.p0i8(i64 4, i8* nonnull %5) #7
  %6 = bitcast [501 x i32]* %2 to i8*
  call void @llvm.lifetime.start.p0i8(i64 2004, i8* nonnull %6) #7
  call void @llvm.memset.p0i8.i64(i8* noundef nonnull align 16 dereferenceable(2004) %6, i8 0, i64 2004, i1 false)
  %7 = getelementptr inbounds [501 x i8], [501 x i8]* %3, i64 0, i64 0
  call void @llvm.lifetime.start.p0i8(i64 501, i8* nonnull %7) #7
  %8 = getelementptr inbounds [251 x [5 x i8]], [251 x [5 x i8]]* %4, i64 0, i64 0, i64 0
  call void @llvm.lifetime.start.p0i8(i64 1255, i8* nonnull %8) #7
  call void @llvm.memset.p0i8.i64(i8* noundef nonnull align 16 dereferenceable(1255) %8, i8 0, i64 1255, i1 false)
  %9 = call i32 (i8*, ...) @__isoc99_scanf(i8* getelementptr inbounds ([3 x i8], [3 x i8]* @.str, i64 0, i64 0), i32* nonnull %1)
  %10 = call i32 (i8*, ...) @__isoc99_scanf(i8* getelementptr inbounds ([3 x i8], [3 x i8]* @.str.1, i64 0, i64 0), i8* nonnull %7)
  %11 = call i64 @strlen(i8* noundef nonnull %7) #8
  %12 = trunc i64 %11 to i32
  %13 = load i32, i32* %1, align 4, !tbaa !5
  %14 = sub nsw i32 %12, %13
  %15 = icmp slt i32 %14, 0
  br i1 %15, label %88, label %16

16:                                               ; preds = %0
  %17 = icmp sgt i32 %13, 0
  br i1 %17, label %18, label %57

18:                                               ; preds = %16
  %19 = zext i32 %13 to i64
  %20 = add i32 %12, 1
  %21 = sub i32 %20, %13
  %22 = zext i32 %21 to i64
  %23 = add nsw i64 %22, -1
  %24 = and i64 %22, 3
  %25 = icmp ult i64 %23, 3
  br i1 %25, label %45, label %26

26:                                               ; preds = %18
  %27 = and i64 %22, 4294967292
  br label %28

28:                                               ; preds = %28, %26
  %29 = phi i64 [ 0, %26 ], [ %42, %28 ]
  %30 = phi i64 [ %27, %26 ], [ %43, %28 ]
  %31 = getelementptr [251 x [5 x i8]], [251 x [5 x i8]]* %4, i64 0, i64 %29, i64 0
  %32 = getelementptr [501 x i8], [501 x i8]* %3, i64 0, i64 %29
  call void @llvm.memcpy.p0i8.p0i8.i64(i8* align 4 %31, i8* align 4 %32, i64 %19, i1 false)
  %33 = or i64 %29, 1
  %34 = getelementptr [251 x [5 x i8]], [251 x [5 x i8]]* %4, i64 0, i64 %33, i64 0
  %35 = getelementptr [501 x i8], [501 x i8]* %3, i64 0, i64 %33
  call void @llvm.memcpy.p0i8.p0i8.i64(i8* align 1 %34, i8* align 1 %35, i64 %19, i1 false)
  %36 = or i64 %29, 2
  %37 = getelementptr [251 x [5 x i8]], [251 x [5 x i8]]* %4, i64 0, i64 %36, i64 0
  %38 = getelementptr [501 x i8], [501 x i8]* %3, i64 0, i64 %36
  call void @llvm.memcpy.p0i8.p0i8.i64(i8* align 2 %37, i8* align 2 %38, i64 %19, i1 false)
  %39 = or i64 %29, 3
  %40 = getelementptr [251 x [5 x i8]], [251 x [5 x i8]]* %4, i64 0, i64 %39, i64 0
  %41 = getelementptr [501 x i8], [501 x i8]* %3, i64 0, i64 %39
  call void @llvm.memcpy.p0i8.p0i8.i64(i8* align 1 %40, i8* align 1 %41, i64 %19, i1 false)
  %42 = add nuw nsw i64 %29, 4
  %43 = add i64 %30, -4
  %44 = icmp eq i64 %43, 0
  br i1 %44, label %45, label %28, !llvm.loop !9

45:                                               ; preds = %28, %18
  %46 = phi i64 [ 0, %18 ], [ %42, %28 ]
  %47 = icmp eq i64 %24, 0
  br i1 %47, label %56, label %48

48:                                               ; preds = %45, %48
  %49 = phi i64 [ %53, %48 ], [ %46, %45 ]
  %50 = phi i64 [ %54, %48 ], [ %24, %45 ]
  %51 = getelementptr [251 x [5 x i8]], [251 x [5 x i8]]* %4, i64 0, i64 %49, i64 0
  %52 = getelementptr [501 x i8], [501 x i8]* %3, i64 0, i64 %49
  call void @llvm.memcpy.p0i8.p0i8.i64(i8* align 1 %51, i8* align 1 %52, i64 %19, i1 false)
  %53 = add nuw nsw i64 %49, 1
  %54 = add i64 %50, -1
  %55 = icmp eq i64 %54, 0
  br i1 %55, label %56, label %48, !llvm.loop !11

56:                                               ; preds = %48, %45
  br i1 %15, label %88, label %57

57:                                               ; preds = %16, %56
  %58 = zext i32 %14 to i64
  %59 = add i32 %12, 1
  %60 = sub i32 %59, %13
  %61 = zext i32 %60 to i64
  br label %62

62:                                               ; preds = %78, %57
  %63 = phi i64 [ 0, %57 ], [ %82, %78 ]
  %64 = phi i32 [ 0, %57 ], [ %81, %78 ]
  %65 = getelementptr inbounds [251 x [5 x i8]], [251 x [5 x i8]]* %4, i64 0, i64 %63, i64 0
  %66 = getelementptr inbounds [501 x i32], [501 x i32]* %2, i64 0, i64 %63
  br label %67

67:                                               ; preds = %62, %75
  %68 = phi i64 [ %63, %62 ], [ %76, %75 ]
  %69 = getelementptr inbounds [251 x [5 x i8]], [251 x [5 x i8]]* %4, i64 0, i64 %68, i64 0
  %70 = call i32 @strcmp(i8* noundef nonnull %65, i8* noundef nonnull %69) #8
  %71 = icmp eq i32 %70, 0
  br i1 %71, label %72, label %75

72:                                               ; preds = %67
  %73 = load i32, i32* %66, align 4, !tbaa !5
  %74 = add nsw i32 %73, 1
  store i32 %74, i32* %66, align 4, !tbaa !5
  br label %75

75:                                               ; preds = %67, %72
  %76 = add nuw nsw i64 %68, 1
  %77 = icmp ult i64 %68, %58
  br i1 %77, label %67, label %78, !llvm.loop !13

78:                                               ; preds = %75
  %79 = load i32, i32* %66, align 4, !tbaa !5
  %80 = icmp sgt i32 %79, %64
  %81 = select i1 %80, i32 %79, i32 %64
  %82 = add nuw nsw i64 %63, 1
  %83 = icmp eq i64 %82, %61
  br i1 %83, label %84, label %62, !llvm.loop !14

84:                                               ; preds = %78
  %85 = icmp eq i32 %81, 1
  br i1 %85, label %86, label %88

86:                                               ; preds = %84
  %87 = call i32 (i8*, ...) @printf(i8* nonnull dereferenceable(1) getelementptr inbounds ([3 x i8], [3 x i8]* @.str.2, i64 0, i64 0))
  br label %109

88:                                               ; preds = %0, %56, %84
  %89 = phi i32 [ %81, %84 ], [ 0, %56 ], [ 0, %0 ]
  %90 = call i32 (i8*, ...) @printf(i8* nonnull dereferenceable(1) getelementptr inbounds ([4 x i8], [4 x i8]* @.str.3, i64 0, i64 0), i32 %89)
  %91 = load i32, i32* %1, align 4, !tbaa !5
  %92 = icmp sgt i32 %91, %12
  br i1 %92, label %109, label %93

93:                                               ; preds = %88, %103
  %94 = phi i32 [ %104, %103 ], [ %91, %88 ]
  %95 = phi i64 [ %105, %103 ], [ 0, %88 ]
  %96 = getelementptr inbounds [501 x i32], [501 x i32]* %2, i64 0, i64 %95
  %97 = load i32, i32* %96, align 4, !tbaa !5
  %98 = icmp eq i32 %97, %89
  br i1 %98, label %99, label %103

99:                                               ; preds = %93
  %100 = getelementptr inbounds [251 x [5 x i8]], [251 x [5 x i8]]* %4, i64 0, i64 %95, i64 0
  %101 = call i32 @puts(i8* nonnull %100)
  %102 = load i32, i32* %1, align 4, !tbaa !5
  br label %103

103:                                              ; preds = %93, %99
  %104 = phi i32 [ %94, %93 ], [ %102, %99 ]
  %105 = add nuw nsw i64 %95, 1
  %106 = sub nsw i32 %12, %104
  %107 = sext i32 %106 to i64
  %108 = icmp slt i64 %95, %107
  br i1 %108, label %93, label %109, !llvm.loop !15

109:                                              ; preds = %103, %88, %86
  call void @llvm.lifetime.end.p0i8(i64 1255, i8* nonnull %8) #7
  call void @llvm.lifetime.end.p0i8(i64 501, i8* nonnull %7) #7
  call void @llvm.lifetime.end.p0i8(i64 2004, i8* nonnull %6) #7
  call void @llvm.lifetime.end.p0i8(i64 4, i8* nonnull %5) #7
  ret i32 0
}

; Function Attrs: argmemonly mustprogress nofree nosync nounwind willreturn
declare void @llvm.lifetime.start.p0i8(i64 immarg, i8* nocapture) #1

; Function Attrs: argmemonly mustprogress nofree nounwind willreturn writeonly
declare void @llvm.memset.p0i8.i64(i8* nocapture writeonly, i8, i64, i1 immarg) #2

; Function Attrs: nofree nounwind
declare noundef i32 @__isoc99_scanf(i8* nocapture noundef readonly, ...) local_unnamed_addr #3

; Function Attrs: argmemonly mustprogress nofree nounwind readonly willreturn
declare i64 @strlen(i8* nocapture) local_unnamed_addr #4

; Function Attrs: argmemonly mustprogress nofree nounwind readonly willreturn
declare i32 @strcmp(i8* nocapture, i8* nocapture) local_unnamed_addr #4

; Function Attrs: nofree nounwind
declare noundef i32 @printf(i8* nocapture noundef readonly, ...) local_unnamed_addr #3

; Function Attrs: argmemonly mustprogress nofree nosync nounwind willreturn
declare void @llvm.lifetime.end.p0i8(i64 immarg, i8* nocapture) #1

; Function Attrs: nofree nounwind
declare noundef i32 @puts(i8* nocapture noundef readonly) local_unnamed_addr #5

; Function Attrs: argmemonly nofree nounwind willreturn
declare void @llvm.memcpy.p0i8.p0i8.i64(i8* noalias nocapture writeonly, i8* noalias nocapture readonly, i64, i1 immarg) #6


!llvm.module.flags = !{!0, !1, !2, !3}
!llvm.ident = !{!4}

!0 = !{i32 1, !"wchar_size", i32 4}
!1 = !{i32 7, !"PIC Level", i32 2}
!2 = !{i32 7, !"PIE Level", i32 2}
!3 = !{i32 7, !"uwtable", i32 1}
!4 = !{!"clang version 13.0.0"}
!5 = !{!6, !6, i64 0}
!6 = !{!"int", !7, i64 0}
!7 = !{!"omnipotent char", !8, i64 0}
!8 = !{!"Simple C/C++ TBAA"}
!9 = distinct !{!9, !10}
!10 = !{!"llvm.loop.mustprogress"}
!11 = distinct !{!11, !12}
!12 = !{!"llvm.loop.unroll.disable"}
!13 = distinct !{!13, !10}
!14 = distinct !{!14, !10}
!15 = distinct !{!15, !10}
